; ModuleID = '52/3883.cpp'
source_filename = "52/3883.cpp"
target datalayout = "e-m:e-p270:32:32-p271:32:32-p272:64:64-i64:64-f80:128-n8:16:32:64-S128"
target triple = "x86_64-pc-linux-gnu"

%"class.std::ios_base::Init" = type { i8 }
%"class.std::basic_istream" = type { i32 (...)**, i64, %"class.std::basic_ios" }
%"class.std::basic_ios" = type { %"class.std::ios_base", %"class.std::basic_ostream"*, i8, i8, %"class.std::basic_streambuf"*, %"class.std::ctype"*, %"class.std::num_put"*, %"class.std::num_get"* }
%"class.std::ios_base" = type { i32 (...)**, i64, i64, i32, i32, i32, %"struct.std::ios_base::_Callback_list"*, %"struct.std::ios_base::_Words", [8 x %"struct.std::ios_base::_Words"], i32, %"struct.std::ios_base::_Words"*, %"class.std::locale" }
%"struct.std::ios_base::_Callback_list" = type { %"struct.std::ios_base::_Callback_list"*, void (i32, %"class.std::ios_base"*, i32)*, i32, i32 }
%"struct.std::ios_base::_Words" = type { i8*, i64 }
%"class.std::locale" = type { %"class.std::locale::_Impl"* }
%"class.std::locale::_Impl" = type { i32, %"class.std::locale::facet"**, i64, %"class.std::locale::facet"**, i8** }
%"class.std::locale::facet" = type <{ i32 (...)**, i32, [4 x i8] }>
%"class.std::basic_ostream" = type { i32 (...)**, %"class.std::basic_ios" }
%"class.std::basic_streambuf" = type { i32 (...)**, i8*, i8*, i8*, i8*, i8*, i8*, %"class.std::locale" }
%"class.std::ctype" = type <{ %"class.std::locale::facet.base", [4 x i8], %struct.__locale_struct*, i8, [7 x i8], i32*, i32*, i16*, i8, [256 x i8], [256 x i8], i8, [6 x i8] }>
%"class.std::locale::facet.base" = type <{ i32 (...)**, i32 }>
%struct.__locale_struct = type { [13 x %struct.__locale_data*], i16*, i32*, i32*, [13 x i8*] }
%struct.__locale_data = type opaque
%"class.std::num_put" = type { %"class.std::locale::facet.base", [4 x i8] }
%"class.std::num_get" = type { %"class.std::locale::facet.base", [4 x i8] }

$_ZSt4swapIiENSt9enable_ifIXsr6__and_ISt6__not_ISt15__is_tuple_likeIT_EESt21is_move_constructibleIS3_ESt18is_move_assignableIS3_EEE5valueEvE4typeERS3_SC_ = comdat any

$_ZSt4moveIRiEONSt16remove_referenceIT_E4typeEOS2_ = comdat any

@_ZStL8__ioinit = internal global %"class.std::ios_base::Init" zeroinitializer, align 1
@__dso_handle = external hidden global i8
@_ZSt3cin = external dso_local global %"class.std::basic_istream", align 8
@_ZSt4cout = external dso_local global %"class.std::basic_ostream", align 8
@.str = private unnamed_addr constant [2 x i8] c" \00", align 1
@llvm.global_ctors = appending global [1 x { i32, void ()*, i8* }] [{ i32, void ()*, i8* } { i32 65535, void ()* @_GLOBAL__sub_I_3883.cpp, i8* null }]

; Function Attrs: noinline uwtable
define internal void @__cxx_global_var_init() #0 section ".text.startup" {
  call void @_ZNSt8ios_base4InitC1Ev(%"class.std::ios_base::Init"* @_ZStL8__ioinit)
  %1 = call i32 @__cxa_atexit(void (i8*)* bitcast (void (%"class.std::ios_base::Init"*)* @_ZNSt8ios_base4InitD1Ev to void (i8*)*), i8* getelementptr inbounds (%"class.std::ios_base::Init", %"class.std::ios_base::Init"* @_ZStL8__ioinit, i32 0, i32 0), i8* @__dso_handle) #3
  ret void
}

declare dso_local void @_ZNSt8ios_base4InitC1Ev(%"class.std::ios_base::Init"*) unnamed_addr #1

; Function Attrs: nounwind
declare dso_local void @_ZNSt8ios_base4InitD1Ev(%"class.std::ios_base::Init"*) unnamed_addr #2

; Function Attrs: nounwind
declare dso_local i32 @__cxa_atexit(void (i8*)*, i8*, i8*) #3

; Function Attrs: noinline nounwind uwtable
define dso_local void @_Z4swapPiS_(i32* %0, i32* %1) #4 {
  %3 = alloca i32*, align 8
  %4 = alloca i32*, align 8
  %5 = alloca i32*, align 8
  store i32* %0, i32** %3, align 8
  store i32* %1, i32** %4, align 8
  %6 = load i32*, i32** %3, align 8
  store i32* %6, i32** %5, align 8
  %7 = load i32*, i32** %4, align 8
  store i32* %7, i32** %3, align 8
  %8 = load i32*, i32** %5, align 8
  store i32* %8, i32** %4, align 8
  ret void
}

; Function Attrs: noinline norecurse uwtable
define dso_local i32 @main() #5 {
  %1 = alloca i32, align 4
  %2 = alloca i32, align 4
  %3 = alloca i32, align 4
  %4 = alloca [100 x i32], align 16
  %5 = alloca i32, align 4
  %6 = alloca i32, align 4
  %7 = alloca i32, align 4
  %8 = alloca i32, align 4
  %9 = alloca i32, align 4
  store i32 0, i32* %1, align 4
  store i32 0, i32* %5, align 4
  %10 = call dereferenceable(280) %"class.std::basic_istream"* @_ZNSirsERi(%"class.std::basic_istream"* @_ZSt3cin, i32* dereferenceable(4) %3)
  %11 = call dereferenceable(280) %"class.std::basic_istream"* @_ZNSirsERi(%"class.std::basic_istream"* %10, i32* dereferenceable(4) %2)
  store i32 0, i32* %6, align 4
  br label %12

12:                                               ; preds = %21, %0
  %13 = load i32, i32* %6, align 4
  %14 = load i32, i32* %3, align 4
  %15 = icmp slt i32 %13, %14
  br i1 %15, label %16, label %24

16:                                               ; preds = %12
  %17 = load i32, i32* %6, align 4
  %18 = sext i32 %17 to i64
  %19 = getelementptr inbounds [100 x i32], [100 x i32]* %4, i64 0, i64 %18
  %20 = call dereferenceable(280) %"class.std::basic_istream"* @_ZNSirsERi(%"class.std::basic_istream"* @_ZSt3cin, i32* dereferenceable(4) %19)
  br label %21

21:                                               ; preds = %16
  %22 = load i32, i32* %6, align 4
  %23 = add nsw i32 %22, 1
  store i32 %23, i32* %6, align 4
  br label %12

24:                                               ; preds = %12
  %25 = load i32, i32* %2, align 4
  store i32 %25, i32* %7, align 4
  br label %26

26:                                               ; preds = %55, %24
  %27 = load i32, i32* %2, align 4
  %28 = icmp sgt i32 %27, 0
  br i1 %28, label %29, label %63

29:                                               ; preds = %26
  %30 = load i32, i32* %3, align 4
  %31 = load i32, i32* %2, align 4
  %32 = sub nsw i32 %30, %31
  %33 = sext i32 %32 to i64
  %34 = getelementptr inbounds [100 x i32], [100 x i32]* %4, i64 0, i64 %33
  call void @_ZSt4swapIiENSt9enable_ifIXsr6__and_ISt6__not_ISt15__is_tuple_likeIT_EESt21is_move_constructibleIS3_ESt18is_move_assignableIS3_EEE5valueEvE4typeERS3_SC_(i32* dereferenceable(4) %34, i32* dereferenceable(4) %5) #3
  %35 = load i32, i32* %3, align 4
  %36 = load i32, i32* %2, align 4
  %37 = sub nsw i32 %35, %36
  store i32 %37, i32* %8, align 4
  br label %38

38:                                               ; preds = %52, %29
  %39 = load i32, i32* %8, align 4
  %40 = load i32, i32* %7, align 4
  %41 = load i32, i32* %2, align 4
  %42 = sub nsw i32 %40, %41
  %43 = icmp sgt i32 %39, %42
  br i1 %43, label %44, label %55

44:                                               ; preds = %38
  %45 = load i32, i32* %8, align 4
  %46 = sext i32 %45 to i64
  %47 = getelementptr inbounds [100 x i32], [100 x i32]* %4, i64 0, i64 %46
  %48 = load i32, i32* %8, align 4
  %49 = sub nsw i32 %48, 1
  %50 = sext i32 %49 to i64
  %51 = getelementptr inbounds [100 x i32], [100 x i32]* %4, i64 0, i64 %50
  call void @_ZSt4swapIiENSt9enable_ifIXsr6__and_ISt6__not_ISt15__is_tuple_likeIT_EESt21is_move_constructibleIS3_ESt18is_move_assignableIS3_EEE5valueEvE4typeERS3_SC_(i32* dereferenceable(4) %47, i32* dereferenceable(4) %51) #3
  br label %52

52:                                               ; preds = %44
  %53 = load i32, i32* %8, align 4
  %54 = add nsw i32 %53, -1
  store i32 %54, i32* %8, align 4
  br label %38

55:                                               ; preds = %38
  %56 = load i32, i32* %7, align 4
  %57 = load i32, i32* %2, align 4
  %58 = sub nsw i32 %56, %57
  %59 = sext i32 %58 to i64
  %60 = getelementptr inbounds [100 x i32], [100 x i32]* %4, i64 0, i64 %59
  call void @_ZSt4swapIiENSt9enable_ifIXsr6__and_ISt6__not_ISt15__is_tuple_likeIT_EESt21is_move_constructibleIS3_ESt18is_move_assignableIS3_EEE5valueEvE4typeERS3_SC_(i32* dereferenceable(4) %60, i32* dereferenceable(4) %5) #3
  %61 = load i32, i32* %2, align 4
  %62 = add nsw i32 %61, -1
  store i32 %62, i32* %2, align 4
  br label %26

63:                                               ; preds = %26
  store i32 0, i32* %9, align 4
  br label %64

64:                                               ; preds = %76, %63
  %65 = load i32, i32* %9, align 4
  %66 = load i32, i32* %3, align 4
  %67 = sub nsw i32 %66, 1
  %68 = icmp slt i32 %65, %67
  br i1 %68, label %69, label %79

69:                                               ; preds = %64
  %70 = load i32, i32* %9, align 4
  %71 = sext i32 %70 to i64
  %72 = getelementptr inbounds [100 x i32], [100 x i32]* %4, i64 0, i64 %71
  %73 = load i32, i32* %72, align 4
  %74 = call dereferenceable(272) %"class.std::basic_ostream"* @_ZNSolsEi(%"class.std::basic_ostream"* @_ZSt4cout, i32 %73)
  %75 = call dereferenceable(272) %"class.std::basic_ostream"* @_ZStlsISt11char_traitsIcEERSt13basic_ostreamIcT_ES5_PKc(%"class.std::basic_ostream"* dereferenceable(272) %74, i8* getelementptr inbounds ([2 x i8], [2 x i8]* @.str, i64 0, i64 0))
  br label %76

76:                                               ; preds = %69
  %77 = load i32, i32* %9, align 4
  %78 = add nsw i32 %77, 1
  store i32 %78, i32* %9, align 4
  br label %64

79:                                               ; preds = %64
  %80 = load i32, i32* %3, align 4
  %81 = sub nsw i32 %80, 1
  %82 = sext i32 %81 to i64
  %83 = getelementptr inbounds [100 x i32], [100 x i32]* %4, i64 0, i64 %82
  %84 = load i32, i32* %83, align 4
  %85 = call dereferenceable(272) %"class.std::basic_ostream"* @_ZNSolsEi(%"class.std::basic_ostream"* @_ZSt4cout, i32 %84)
  %86 = call dereferenceable(272) %"class.std::basic_ostream"* @_ZNSolsEPFRSoS_E(%"class.std::basic_ostream"* %85, %"class.std::basic_ostream"* (%"class.std::basic_ostream"*)* @_ZSt4endlIcSt11char_traitsIcEERSt13basic_ostreamIT_T0_ES6_)
  ret i32 0
}

declare dso_local dereferenceable(280) %"class.std::basic_istream"* @_ZNSirsERi(%"class.std::basic_istream"*, i32* dereferenceable(4)) #1

; Function Attrs: noinline nounwind uwtable
define linkonce_odr dso_local void @_ZSt4swapIiENSt9enable_ifIXsr6__and_ISt6__not_ISt15__is_tuple_likeIT_EESt21is_move_constructibleIS3_ESt18is_move_assignableIS3_EEE5valueEvE4typeERS3_SC_(i32* dereferenceable(4) %0, i32* dereferenceable(4) %1) #4 comdat {
  %3 = alloca i32*, align 8
  %4 = alloca i32*, align 8
  %5 = alloca i32, align 4
  store i32* %0, i32** %3, align 8
  store i32* %1, i32** %4, align 8
  %6 = load i32*, i32** %3, align 8
  %7 = call dereferenceable(4) i32* @_ZSt4moveIRiEONSt16remove_referenceIT_E4typeEOS2_(i32* dereferenceable(4) %6) #3
  %8 = load i32, i32* %7, align 4
  store i32 %8, i32* %5, align 4
  %9 = load i32*, i32** %4, align 8
  %10 = call dereferenceable(4) i32* @_ZSt4moveIRiEONSt16remove_referenceIT_E4typeEOS2_(i32* dereferenceable(4) %9) #3
  %11 = load i32, i32* %10, align 4
  %12 = load i32*, i32** %3, align 8
  store i32 %11, i32* %12, align 4
  %13 = call dereferenceable(4) i32* @_ZSt4moveIRiEONSt16remove_referenceIT_E4typeEOS2_(i32* dereferenceable(4) %5) #3
  %14 = load i32, i32* %13, align 4
  %15 = load i32*, i32** %4, align 8
  store i32 %14, i32* %15, align 4
  ret void
}

declare dso_local dereferenceable(272) %"class.std::basic_ostream"* @_ZStlsISt11char_traitsIcEERSt13basic_ostreamIcT_ES5_PKc(%"class.std::basic_ostream"* dereferenceable(272), i8*) #1

declare dso_local dereferenceable(272) %"class.std::basic_ostream"* @_ZNSolsEi(%"class.std::basic_ostream"*, i32) #1

declare dso_local dereferenceable(272) %"class.std::basic_ostream"* @_ZNSolsEPFRSoS_E(%"class.std::basic_ostream"*, %"class.std::basic_ostream"* (%"class.std::basic_ostream"*)*) #1

declare dso_local dereferenceable(272) %"class.std::basic_ostream"* @_ZSt4endlIcSt11char_traitsIcEERSt13basic_ostreamIT_T0_ES6_(%"class.std::basic_ostream"* dereferenceable(272)) #1

; Function Attrs: noinline nounwind uwtable
define linkonce_odr dso_local dereferenceable(4) i32* @_ZSt4moveIRiEONSt16remove_referenceIT_E4typeEOS2_(i32* dereferenceable(4) %0) #4 comdat {
  %2 = alloca i32*, align 8
  store i32* %0, i32** %2, align 8
  %3 = load i32*, i32** %2, align 8
  ret i32* %3
}

; Function Attrs: noinline uwtable
define internal void @_GLOBAL__sub_I_3883.cpp() #0 section ".text.startup" {
  call void @__cxx_global_var_init()
  ret void
}


!llvm.module.flags = !{!0}
!llvm.ident = !{!1}

!0 = !{i32 1, !"wchar_size", i32 4}
!1 = !{!"clang version 10.0.0-4ubuntu1 "}
